target datalayout = "e-m:e-p270:32:32-p271:32:32-p272:64:64-i64:64-i128:128-f80:128-n8:16:32:64-S128"
target triple = "x86_64-pc-linux-gnu"

%struct.Par_ThData_t_ = type { ptr, i32, i32, i32, i32, i32 }

; Function Attrs: nounwind uwtable
define ptr @Cec_GiaProveWorkerThread(ptr noundef %0) #0 {
  %2 = alloca ptr, align 8
  %3 = alloca ptr, align 8
  %4 = alloca ptr, align 8
  store ptr %0, ptr %2, align 8, !tbaa !73
  call void @llvm.lifetime.start.p0(i64 8, ptr %3) #9
  %5 = load ptr, ptr %2, align 8, !tbaa !73
  store ptr %5, ptr %3, align 8, !tbaa !74
  call void @llvm.lifetime.start.p0(i64 8, ptr %4) #9
  %6 = load ptr, ptr %3, align 8, !tbaa !74
  %7 = getelementptr inbounds nuw %struct.Par_ThData_t_, ptr %6, i32 0, i32 2
  store ptr %7, ptr %4, align 8, !tbaa !76
  br label %8

8:                                                ; preds = %21, %1
  br label %9

9:                                                ; preds = %8
  br label %10

10:                                               ; preds = %14, %9
  %11 = load ptr, ptr %4, align 8, !tbaa !76
  %12 = load volatile i32, ptr %11, align 4, !tbaa !8
  %13 = icmp eq i32 %12, 0
  br i1 %13, label %14, label %15

14:                                               ; preds = %10
  br label %10, !llvm.loop !77

15:                                               ; preds = %10
  %16 = load ptr, ptr %3, align 8, !tbaa !74
  %17 = getelementptr inbounds nuw %struct.Par_ThData_t_, ptr %16, i32 0, i32 0
  %18 = load ptr, ptr %17, align 8, !tbaa !79
  %19 = icmp eq ptr %18, null
  br i1 %19, label %20, label %21

20:                                               ; preds = %15
  call void @pthread_exit(ptr noundef null) #10
  unreachable

21:                                               ; preds = %15
  %22 = load ptr, ptr %3, align 8, !tbaa !74
  %23 = getelementptr inbounds nuw %struct.Par_ThData_t_, ptr %22, i32 0, i32 0
  %24 = load ptr, ptr %23, align 8, !tbaa !79
  %25 = load ptr, ptr %3, align 8, !tbaa !74
  %26 = getelementptr inbounds nuw %struct.Par_ThData_t_, ptr %25, i32 0, i32 1
  %27 = load i32, ptr %26, align 8, !tbaa !81
  %28 = load ptr, ptr %3, align 8, !tbaa !74
  %29 = getelementptr inbounds nuw %struct.Par_ThData_t_, ptr %28, i32 0, i32 3
  %30 = load i32, ptr %29, align 8, !tbaa !82
  %31 = load ptr, ptr %3, align 8, !tbaa !74
  %32 = getelementptr inbounds nuw %struct.Par_ThData_t_, ptr %31, i32 0, i32 5
  %33 = load i32, ptr %32, align 8, !tbaa !83
  %34 = call i32 @Cec_GiaProveOne(ptr noundef %24, i32 noundef %27, i32 noundef %30, i32 noundef %33)
  %35 = load ptr, ptr %3, align 8, !tbaa !74
  %36 = getelementptr inbounds nuw %struct.Par_ThData_t_, ptr %35, i32 0, i32 4
  store i32 %34, ptr %36, align 4, !tbaa !84
  %37 = load ptr, ptr %3, align 8, !tbaa !74
  %38 = getelementptr inbounds nuw %struct.Par_ThData_t_, ptr %37, i32 0, i32 2
  store i32 0, ptr %38, align 4, !tbaa !85
  br label %8
}