; Function Attrs: noreturn nounwind uwtable
define noalias noundef nonnull ptr @Cec_GiaProveWorkerThread(ptr noundef %0) #5 {
  %2 = getelementptr inbounds nuw i8, ptr %0, i64 12
  %3 = getelementptr inbounds nuw i8, ptr %0, i64 8
  %4 = getelementptr inbounds nuw i8, ptr %0, i64 16
  %5 = getelementptr inbounds nuw i8, ptr %0, i64 24
  %6 = getelementptr inbounds nuw i8, ptr %0, i64 20
  br label %7

7:                                                ; preds = %.backedge, %1
  %8 = load volatile i32, ptr %2, align 4, !tbaa !59
  %9 = icmp eq i32 %8, 0
  br i1 %9, label %.backedge, label %10

.backedge:                                        ; preds = %7, %14
  br label %7, !llvm.loop !60

10:                                               ; preds = %7
  %11 = load ptr, ptr %0, align 8, !tbaa !62
  %12 = icmp eq ptr %11, null
  br i1 %12, label %13, label %14

13:                                               ; preds = %10
  tail call void @pthread_exit(ptr noundef null) #14
  unreachable

14:                                               ; preds = %10
  %15 = load i32, ptr %3, align 8, !tbaa !64
  %16 = load i32, ptr %4, align 8, !tbaa !65
  %17 = load i32, ptr %5, align 8, !tbaa !66
  %18 = tail call i32 @Cec_GiaProveOne(ptr noundef nonnull %11, i32 noundef %15, i32 noundef %16, i32 noundef %17)
  store i32 %18, ptr %6, align 4, !tbaa !67
  store i32 0, ptr %2, align 4, !tbaa !68
  br label %.backedge
}